target datalayout = "e-m:e-p270:32:32-p271:32:32-p272:64:64-i64:64-i128:128-f80:128-n8:16:32:64-S128"
target triple = "x86_64-pc-linux-gnu"

@pendingSyncHash = internal global ptr null, align 8

; Function Attrs: nounwind uwtable
define dso_local i64 @EstimatePendingSyncsSpace() #0 {
  %1 = alloca i64, align 8
  call void @llvm.lifetime.start.p0(i64 8, ptr %1) #8
  %2 = load ptr, ptr @pendingSyncHash, align 8
  %3 = icmp ne ptr %2, null
  br i1 %3, label %4, label %7

4:                                                ; preds = %0
  %5 = load ptr, ptr @pendingSyncHash, align 8
  %6 = call i64 @hash_get_num_entries(ptr noundef %5)
  br label %8

7:                                                ; preds = %0
  br label %8

8:                                                ; preds = %7, %4
  %9 = phi i64 [ %6, %4 ], [ 0, %7 ]
  store i64 %9, ptr %1, align 8
  %10 = load i64, ptr %1, align 8
  %11 = add i64 1, %10
  %12 = call i64 @mul_size(i64 noundef %11, i64 noundef 12)
  call void @llvm.lifetime.end.p0(i64 8, ptr %1) #8
  ret i64 %12
}