; Function Attrs: nounwind uwtable
define dso_local i64 @EstimatePendingSyncsSpace() local_unnamed_addr #0 {
  %1 = load ptr, ptr @pendingSyncHash, align 8
  %.not = icmp eq ptr %1, null
  br i1 %.not, label %5, label %2

2:                                                ; preds = %0
  %3 = tail call i64 @hash_get_num_entries(ptr noundef nonnull %1) #8
  %4 = add i64 %3, 1
  br label %5

5:                                                ; preds = %0, %2
  %6 = phi i64 [ %4, %2 ], [ 1, %0 ]
  %7 = tail call i64 @mul_size(i64 noundef %6, i64 noundef 12) #8
  ret i64 %7
}